target datalayout = "e-m:e-p270:32:32-p271:32:32-p272:64:64-i64:64-i128:128-f80:128-n8:16:32:64-S128"
target triple = "x86_64-pc-linux-gnu"

%struct.sackd_node_t = type { ptr, ptr, i64, i16 }
%struct.slurm_msg = type { %struct.sockaddr_storage, ptr, i32, i32, i32, i8, i32, i8, i32, ptr, ptr, i32, ptr, ptr, i16, i8, i16, i16, %struct.forward, ptr, %struct.sockaddr_storage, ptr }
%struct.forward = type { %struct.slurm_node_alias_addrs_t, i16, i16, ptr, i32, i16, i16 }
%struct.slurm_node_alias_addrs_t = type { i64, ptr, ptr, i32, ptr }
%struct.sockaddr_storage = type { i16, [118 x i8], i64 }

@.str.7 = private unnamed_addr constant [12 x i8] c"sackd_mgr.c\00", align 1
@__func__._update_sackd_node = private unnamed_addr constant [19 x i8] c"_update_sackd_node\00", align 1

; Function Attrs: nounwind uwtable
define internal void @_update_sackd_node(ptr noundef %0, ptr noundef %1) #0 {
  %3 = alloca ptr, align 8
  %4 = alloca ptr, align 8
  %5 = alloca ptr, align 8
  store ptr %0, ptr %3, align 8
  store ptr %1, ptr %4, align 8
  call void @llvm.lifetime.start.p0(i64 8, ptr %5) #7
  %6 = load ptr, ptr %4, align 8
  %7 = getelementptr inbounds nuw %struct.slurm_msg, ptr %6, i32 0, i32 0
  store ptr %7, ptr %5, align 8
  %8 = call i64 @time(ptr noundef null) #7
  %9 = load ptr, ptr %3, align 8
  %10 = getelementptr inbounds nuw %struct.sackd_node_t, ptr %9, i32 0, i32 2
  store i64 %8, ptr %10, align 8
  %11 = load ptr, ptr %4, align 8
  %12 = getelementptr inbounds nuw %struct.slurm_msg, ptr %11, i32 0, i32 17
  %13 = load i16, ptr %12, align 2
  %14 = load ptr, ptr %3, align 8
  %15 = getelementptr inbounds nuw %struct.sackd_node_t, ptr %14, i32 0, i32 3
  store i16 %13, ptr %15, align 8
  %16 = load ptr, ptr %3, align 8
  %17 = getelementptr inbounds nuw %struct.sackd_node_t, ptr %16, i32 0, i32 1
  call void @slurm_xfree(ptr noundef %17)
  %18 = load ptr, ptr %5, align 8
  %19 = getelementptr inbounds nuw %struct.sockaddr_storage, ptr %18, i32 0, i32 0
  %20 = load i16, ptr %19, align 8
  %21 = zext i16 %20 to i32
  %22 = icmp eq i32 %21, 0
  br i1 %22, label %23, label %34

23:                                               ; preds = %2
  %24 = load ptr, ptr %4, align 8
  %25 = getelementptr inbounds nuw %struct.slurm_msg, ptr %24, i32 0, i32 11
  %26 = load i32, ptr %25, align 8
  %27 = icmp sge i32 %26, 0
  br i1 %27, label %28, label %34

28:                                               ; preds = %23
  %29 = load ptr, ptr %4, align 8
  %30 = getelementptr inbounds nuw %struct.slurm_msg, ptr %29, i32 0, i32 11
  %31 = load i32, ptr %30, align 8
  %32 = load ptr, ptr %5, align 8
  %33 = call i32 @slurm_get_peer_addr(i32 noundef %31, ptr noundef %32)
  br label %34

34:                                               ; preds = %28, %23, %2
  %35 = load ptr, ptr %5, align 8
  %36 = getelementptr inbounds nuw %struct.sockaddr_storage, ptr %35, i32 0, i32 0
  %37 = load i16, ptr %36, align 8
  %38 = zext i16 %37 to i32
  %39 = icmp ne i32 %38, 0
  br i1 %39, label %40, label %48

40:                                               ; preds = %34
  %41 = call ptr @slurm_xcalloc(i64 noundef 1, i64 noundef 46, i1 noundef zeroext true, i1 noundef zeroext false, ptr noundef @.str.7, i32 noundef 118, ptr noundef @__func__._update_sackd_node)
  %42 = load ptr, ptr %3, align 8
  %43 = getelementptr inbounds nuw %struct.sackd_node_t, ptr %42, i32 0, i32 1
  store ptr %41, ptr %43, align 8
  %44 = load ptr, ptr %5, align 8
  %45 = load ptr, ptr %3, align 8
  %46 = getelementptr inbounds nuw %struct.sackd_node_t, ptr %45, i32 0, i32 1
  %47 = load ptr, ptr %46, align 8
  call void @slurm_get_ip_str(ptr noundef %44, ptr noundef %47, i32 noundef 46)
  br label %55

48:                                               ; preds = %34
  %49 = load ptr, ptr %3, align 8
  %50 = getelementptr inbounds nuw %struct.sackd_node_t, ptr %49, i32 0, i32 0
  %51 = load ptr, ptr %50, align 8
  %52 = call ptr @xstrdup(ptr noundef %51)
  %53 = load ptr, ptr %3, align 8
  %54 = getelementptr inbounds nuw %struct.sackd_node_t, ptr %53, i32 0, i32 1
  store ptr %52, ptr %54, align 8
  br label %55

55:                                               ; preds = %48, %40
  call void @llvm.lifetime.end.p0(i64 8, ptr %5) #7
  ret void
}