; Function Attrs: nounwind uwtable
define internal fastcc void @_update_sackd_node(ptr noundef initializes((16, 26)) %0, ptr noundef %1) unnamed_addr #0 {
  %3 = tail call i64 @time(ptr noundef null) #7
  %4 = getelementptr inbounds nuw i8, ptr %0, i64 16
  store i64 %3, ptr %4, align 8
  %5 = getelementptr inbounds nuw i8, ptr %1, i64 214
  %6 = load i16, ptr %5, align 2
  %7 = getelementptr inbounds nuw i8, ptr %0, i64 24
  store i16 %6, ptr %7, align 8
  %8 = getelementptr inbounds nuw i8, ptr %0, i64 8
  tail call void @slurm_xfree(ptr noundef nonnull %8) #7
  %9 = load i16, ptr %1, align 8
  %10 = icmp eq i16 %9, 0
  br i1 %10, label %11, label %.thread

11:                                               ; preds = %2
  %12 = getelementptr inbounds nuw i8, ptr %1, i64 184
  %13 = load i32, ptr %12, align 8
  %14 = icmp sgt i32 %13, -1
  br i1 %14, label %15, label %.thread17

15:                                               ; preds = %11
  %16 = tail call i32 @slurm_get_peer_addr(i32 noundef %13, ptr noundef nonnull %1) #7
  %.pr.pre = load i16, ptr %1, align 8
  %17 = icmp eq i16 %.pr.pre, 0
  br i1 %17, label %.thread17, label %.thread

.thread:                                          ; preds = %2, %15
  %18 = tail call ptr @slurm_xcalloc(i64 noundef 1, i64 noundef 46, i1 noundef zeroext true, i1 noundef zeroext false, ptr noundef nonnull @.str.7, i32 noundef 118, ptr noundef nonnull @__func__._update_sackd_node) #7
  store ptr %18, ptr %8, align 8
  tail call void @slurm_get_ip_str(ptr noundef nonnull %1, ptr noundef %18, i32 noundef 46) #7
  br label %21

.thread17:                                        ; preds = %11, %15
  %19 = load ptr, ptr %0, align 8
  %20 = tail call ptr @xstrdup(ptr noundef %19) #7
  store ptr %20, ptr %8, align 8
  br label %21

21:                                               ; preds = %.thread17, %.thread
  ret void
}